; Function Attrs: nounwind uwtable
define ptr @l_Array_instGetElem_x3fNatLtSize___lambda__1(ptr noundef readonly captures(none) %0, ptr noundef %1) local_unnamed_addr #0 {
  %3 = getelementptr i8, ptr %0, i64 8
  %.val = load i64, ptr %3, align 8, !tbaa !15
  %4 = shl i64 %.val, 1
  %5 = or disjoint i64 %4, 1
  %6 = inttoptr i64 %5 to ptr
  %7 = ptrtoint ptr %1 to i64
  %8 = and i64 %7, 1
  %.not = icmp eq i64 %8, 0
  br i1 %.not, label %lean_dec.exit, label %9, !prof !14

9:                                                ; preds = %2
  %10 = icmp ult ptr %1, %6
  br i1 %10, label %12, label %30

lean_dec.exit:                                    ; preds = %2
  %11 = tail call zeroext i1 @lean_nat_big_lt(ptr noundef %1, ptr noundef nonnull %6) #5
  br i1 %11, label %12, label %30

12:                                               ; preds = %9, %lean_dec.exit
  %13 = lshr i64 %7, 1
  %14 = getelementptr inbounds nuw i8, ptr %0, i64 24
  %15 = getelementptr inbounds nuw [0 x ptr], ptr %14, i64 0, i64 %13
  %16 = load ptr, ptr %15, align 8, !tbaa !4
  %17 = ptrtoint ptr %16 to i64
  %18 = and i64 %17, 1
  %.not.i.i = icmp eq i64 %18, 0
  br i1 %.not.i.i, label %19, label %lean_array_fget.exit

19:                                               ; preds = %12
  %.val.i.i.i = load i32, ptr %16, align 4, !tbaa !8
  %20 = icmp sgt i32 %.val.i.i.i, 0
  br i1 %20, label %21, label %23, !prof !13

21:                                               ; preds = %19
  %22 = add nuw i32 %.val.i.i.i, 1
  store i32 %22, ptr %16, align 4, !tbaa !8
  br label %lean_array_fget.exit

23:                                               ; preds = %19
  %.not.i.i.i = icmp eq i32 %.val.i.i.i, 0
  br i1 %.not.i.i.i, label %lean_array_fget.exit, label %24

24:                                               ; preds = %23
  tail call void @lean_inc_ref_cold(ptr noundef nonnull %16) #5
  br label %lean_array_fget.exit

lean_array_fget.exit:                             ; preds = %12, %21, %23, %24
  tail call void @lean_inc_heartbeat() #5
  %25 = tail call noalias ptr @mi_malloc_small(i64 noundef 16) #5
  %26 = icmp eq ptr %25, null
  br i1 %26, label %27, label %lean_alloc_ctor.exit

27:                                               ; preds = %lean_array_fget.exit
  tail call void @lean_internal_panic_out_of_memory() #6
  unreachable

lean_alloc_ctor.exit:                             ; preds = %lean_array_fget.exit
  %28 = getelementptr inbounds nuw i8, ptr %25, i64 4
  store i32 1, ptr %25, align 4, !tbaa !8
  store i32 16842768, ptr %28, align 4
  %29 = getelementptr inbounds nuw i8, ptr %25, i64 8
  store ptr %16, ptr %29, align 8, !tbaa !4
  br label %30

30:                                               ; preds = %9, %lean_dec.exit, %lean_alloc_ctor.exit
  %.0 = phi ptr [ %25, %lean_alloc_ctor.exit ], [ inttoptr (i64 1 to ptr), %lean_dec.exit ], [ inttoptr (i64 1 to ptr), %9 ]
  ret ptr %.0
}